target datalayout = "e-m:e-p270:32:32-p271:32:32-p272:64:64-i64:64-i128:128-f80:128-n8:16:32:64-S128"
target triple = "x86_64-pc-linux-gnu"

%struct.quic_conn_id_st = type { i8, [20 x i8] }
%union.bio_addr_st = type { %struct.sockaddr_in6, [84 x i8] }
%struct.sockaddr_in6 = type { i16, i16, i32, %struct.in6_addr, i32 }
%struct.in6_addr = type { %union.anon }
%union.anon = type { [4 x i32] }
%struct.OSSL_TIME = type { i64 }
%struct.quic_channel_st = type { ptr, %struct.anon, %struct.anon.0, ptr, ptr, ptr, ptr, ptr, ptr, ptr, i64, %union.bio_addr_st, ptr, ptr, ptr, %struct.quic_txfc_st, %struct.quic_rxfc_st, [3 x %struct.quic_rxfc_st], %struct.quic_rxfc_st, %struct.quic_rxfc_st, %struct.quic_stream_map_st, %struct.ossl_statm_st, ptr, ptr, ptr, ptr, ptr, ptr, ptr, ptr, [3 x ptr], [3 x ptr], %struct.quic_conn_id_st, %struct.quic_conn_id_st, %struct.quic_conn_id_st, %struct.quic_conn_id_st, %struct.quic_conn_id_st, %struct.quic_conn_id_st, i64, i64, i64, i64, i64, i64, i64, i64, i64, i64, i8, i16, ptr, i64, i64, i64, i64, i64, i64, i64, i64, i64, i64, i64, i64, i64, %struct.quic_terminate_cause_st, %struct.OSSL_TIME, %struct.OSSL_TIME, %struct.OSSL_TIME, %struct.OSSL_TIME, %struct.OSSL_TIME, i64, i64, i64, ptr, ptr, i64, ptr }
%struct.anon = type { ptr, ptr }
%struct.anon.0 = type { ptr, ptr }
%struct.quic_txfc_st = type { ptr, i64, i64, i8 }
%struct.quic_rxfc_st = type { i64, i64, i64, i64, i64, i64, i64, %struct.OSSL_TIME, ptr, ptr, ptr, i8, i8, i8, i8 }
%struct.quic_stream_map_st = type { ptr, %struct.quic_stream_list_node_st, %struct.quic_stream_list_node_st, %struct.quic_stream_list_node_st, i64, i64, i64, i64, i64, ptr, ptr, ptr, ptr, ptr, i32 }
%struct.quic_stream_list_node_st = type { ptr, ptr }
%struct.ossl_statm_st = type { %struct.OSSL_TIME, %struct.OSSL_TIME, %struct.OSSL_TIME, %struct.OSSL_TIME, i8 }
%struct.quic_terminate_cause_st = type { i64, i64, ptr, i64, i8 }

@.str = private unnamed_addr constant [35 x i8] c"../openssl/ssl/quic/quic_channel.c\00", align 1
@.str.94 = private unnamed_addr constant [47 x i8] c"Post-handshake TLS CertificateRequest received\00", align 1
@__func__.ch_on_handshake_alert = private unnamed_addr constant [22 x i8] c"ch_on_handshake_alert\00", align 1
@.str.95 = private unnamed_addr constant [28 x i8] c"Bad max_early_data received\00", align 1
@.str.96 = private unnamed_addr constant [16 x i8] c"handshake alert\00", align 1

; Function Attrs: nounwind uwtable
define internal i32 @ch_on_handshake_alert(ptr noundef %0, i8 noundef zeroext %1) #0 {
  %3 = alloca ptr, align 8
  %4 = alloca i8, align 1
  %5 = alloca ptr, align 8
  store ptr %0, ptr %3, align 8, !tbaa !172
  store i8 %1, ptr %4, align 1, !tbaa !89
  call void @llvm.lifetime.start.p0(i64 8, ptr %5) #9
  %6 = load ptr, ptr %3, align 8, !tbaa !172
  store ptr %6, ptr %5, align 8, !tbaa !3
  %7 = load i8, ptr %4, align 1, !tbaa !89
  %8 = zext i8 %7 to i32
  %9 = icmp eq i32 %8, 10
  br i1 %9, label %10, label %26

10:                                               ; preds = %2
  %11 = load ptr, ptr %5, align 8, !tbaa !3
  %12 = getelementptr inbounds nuw %struct.quic_channel_st, ptr %11, i32 0, i32 72
  %13 = load i64, ptr %12, align 8
  %14 = lshr i64 %13, 9
  %15 = and i64 %14, 1
  %16 = trunc i64 %15 to i32
  %17 = icmp ne i32 %16, 0
  br i1 %17, label %18, label %26

18:                                               ; preds = %10
  %19 = load ptr, ptr %5, align 8, !tbaa !3
  %20 = getelementptr inbounds nuw %struct.quic_channel_st, ptr %19, i32 0, i32 3
  %21 = load ptr, ptr %20, align 8, !tbaa !142
  %22 = call i32 @ossl_quic_tls_is_cert_request(ptr noundef %21)
  %23 = icmp ne i32 %22, 0
  br i1 %23, label %24, label %26

24:                                               ; preds = %18
  %25 = load ptr, ptr %5, align 8, !tbaa !3
  call void @ossl_quic_channel_raise_protocol_error_loc(ptr noundef %25, i64 noundef 10, i64 noundef 0, ptr noundef @.str.94, ptr noundef null, ptr noundef @.str, i32 noundef 1181, ptr noundef @__func__.ch_on_handshake_alert)
  br label %53

26:                                               ; preds = %18, %10, %2
  %27 = load i8, ptr %4, align 1, !tbaa !89
  %28 = zext i8 %27 to i32
  %29 = icmp eq i32 %28, 47
  br i1 %29, label %30, label %46

30:                                               ; preds = %26
  %31 = load ptr, ptr %5, align 8, !tbaa !3
  %32 = getelementptr inbounds nuw %struct.quic_channel_st, ptr %31, i32 0, i32 72
  %33 = load i64, ptr %32, align 8
  %34 = lshr i64 %33, 9
  %35 = and i64 %34, 1
  %36 = trunc i64 %35 to i32
  %37 = icmp ne i32 %36, 0
  br i1 %37, label %38, label %46

38:                                               ; preds = %30
  %39 = load ptr, ptr %5, align 8, !tbaa !3
  %40 = getelementptr inbounds nuw %struct.quic_channel_st, ptr %39, i32 0, i32 3
  %41 = load ptr, ptr %40, align 8, !tbaa !142
  %42 = call i32 @ossl_quic_tls_has_bad_max_early_data(ptr noundef %41)
  %43 = icmp ne i32 %42, 0
  br i1 %43, label %44, label %46

44:                                               ; preds = %38
  %45 = load ptr, ptr %5, align 8, !tbaa !3
  call void @ossl_quic_channel_raise_protocol_error_loc(ptr noundef %45, i64 noundef 10, i64 noundef 0, ptr noundef @.str.95, ptr noundef null, ptr noundef @.str, i32 noundef 1195, ptr noundef @__func__.ch_on_handshake_alert)
  br label %52

46:                                               ; preds = %38, %30, %26
  %47 = load ptr, ptr %5, align 8, !tbaa !3
  %48 = load i8, ptr %4, align 1, !tbaa !89
  %49 = zext i8 %48 to i32
  %50 = add nsw i32 256, %49
  %51 = sext i32 %50 to i64
  call void @ossl_quic_channel_raise_protocol_error_loc(ptr noundef %47, i64 noundef %51, i64 noundef 0, ptr noundef @.str.96, ptr noundef null, ptr noundef @.str, i32 noundef 1200, ptr noundef @__func__.ch_on_handshake_alert)
  br label %52

52:                                               ; preds = %46, %44
  br label %53

53:                                               ; preds = %52, %24
  call void @llvm.lifetime.end.p0(i64 8, ptr %5) #9
  ret i32 1
}