; Function Attrs: nounwind uwtable
define internal noundef i32 @ch_on_handshake_alert(ptr noundef %0, i8 noundef zeroext %1) #0 {
  %3 = zext i8 %1 to i64
  switch i8 %1, label %22 [
    i8 10, label %4
    i8 47, label %13
  ]

4:                                                ; preds = %2
  %5 = getelementptr inbounds nuw i8, ptr %0, i64 1568
  %6 = load i64, ptr %5, align 8
  %7 = and i64 %6, 512
  %.not = icmp eq i64 %7, 0
  br i1 %.not, label %22, label %8

8:                                                ; preds = %4
  %9 = getelementptr inbounds nuw i8, ptr %0, i64 40
  %10 = load ptr, ptr %9, align 8, !tbaa !139
  %11 = tail call i32 @ossl_quic_tls_is_cert_request(ptr noundef %10) #15
  %.not10 = icmp eq i32 %11, 0
  br i1 %.not10, label %22, label %12

12:                                               ; preds = %8
  tail call void @ossl_quic_channel_raise_protocol_error_loc(ptr noundef nonnull %0, i64 noundef 10, i64 noundef 0, ptr noundef nonnull @.str.94, ptr noundef null, ptr noundef nonnull @.str, i32 noundef 1181, ptr noundef nonnull @__func__.ch_on_handshake_alert)
  br label %24

13:                                               ; preds = %2
  %14 = getelementptr inbounds nuw i8, ptr %0, i64 1568
  %15 = load i64, ptr %14, align 8
  %16 = and i64 %15, 512
  %.not11 = icmp eq i64 %16, 0
  br i1 %.not11, label %22, label %17

17:                                               ; preds = %13
  %18 = getelementptr inbounds nuw i8, ptr %0, i64 40
  %19 = load ptr, ptr %18, align 8, !tbaa !139
  %20 = tail call i32 @ossl_quic_tls_has_bad_max_early_data(ptr noundef %19) #15
  %.not12 = icmp eq i32 %20, 0
  br i1 %.not12, label %22, label %21

21:                                               ; preds = %17
  tail call void @ossl_quic_channel_raise_protocol_error_loc(ptr noundef nonnull %0, i64 noundef 10, i64 noundef 0, ptr noundef nonnull @.str.95, ptr noundef null, ptr noundef nonnull @.str, i32 noundef 1195, ptr noundef nonnull @__func__.ch_on_handshake_alert)
  br label %24

22:                                               ; preds = %4, %8, %2, %17, %13
  %23 = or disjoint i64 %3, 256
  tail call void @ossl_quic_channel_raise_protocol_error_loc(ptr noundef %0, i64 noundef %23, i64 noundef 0, ptr noundef nonnull @.str.96, ptr noundef null, ptr noundef nonnull @.str, i32 noundef 1200, ptr noundef nonnull @__func__.ch_on_handshake_alert)
  br label %24

24:                                               ; preds = %21, %22, %12
  ret i32 1
}